target datalayout = "e-m:e-p270:32:32-p271:32:32-p272:64:64-i64:64-i128:128-f80:128-n8:16:32:64-S128"
target triple = "x86_64-pc-linux-gnu"

%struct.mbedtls_gcm_context = type { %struct.mbedtls_cipher_context_t, [16 x i64], [16 x i64], i64, i64, [16 x i8], [16 x i8], [16 x i8], i32 }
%struct.mbedtls_cipher_context_t = type { ptr, i32, i32, [16 x i8], i64, [16 x i8], i64, ptr }

@_ZL5last4 = internal constant [16 x i64] [i64 0, i64 7200, i64 14400, i64 9312, i64 28800, i64 27808, i64 18624, i64 21728, i64 57600, i64 64800, i64 55616, i64 50528, i64 37248, i64 36256, i64 43456, i64 46560], align 16

; Function Attrs: mustprogress nounwind uwtable
define internal void @_ZL8gcm_multP19mbedtls_gcm_contextPKhPh(ptr noundef %0, ptr noundef %1, ptr noundef %2) #0 {
  %4 = alloca ptr, align 8
  %5 = alloca ptr, align 8
  %6 = alloca ptr, align 8
  %7 = alloca i32, align 4
  %8 = alloca i8, align 1
  %9 = alloca i8, align 1
  %10 = alloca i8, align 1
  %11 = alloca i64, align 8
  %12 = alloca i64, align 8
  store ptr %0, ptr %4, align 8, !tbaa !3
  store ptr %1, ptr %5, align 8, !tbaa !10
  store ptr %2, ptr %6, align 8, !tbaa !10
  call void @llvm.lifetime.start.p0(i64 4, ptr %7) #6
  store i32 0, ptr %7, align 4, !tbaa !12
  call void @llvm.lifetime.start.p0(i64 1, ptr %8) #6
  call void @llvm.lifetime.start.p0(i64 1, ptr %9) #6
  call void @llvm.lifetime.start.p0(i64 1, ptr %10) #6
  call void @llvm.lifetime.start.p0(i64 8, ptr %11) #6
  call void @llvm.lifetime.start.p0(i64 8, ptr %12) #6
  %13 = load ptr, ptr %5, align 8, !tbaa !10
  %14 = getelementptr inbounds i8, ptr %13, i64 15
  %15 = load i8, ptr %14, align 1, !tbaa !23
  %16 = zext i8 %15 to i32
  %17 = and i32 %16, 15
  %18 = trunc i32 %17 to i8
  store i8 %18, ptr %8, align 1, !tbaa !23
  %19 = load ptr, ptr %4, align 8, !tbaa !3
  %20 = getelementptr inbounds nuw %struct.mbedtls_gcm_context, ptr %19, i32 0, i32 2
  %21 = load i8, ptr %8, align 1, !tbaa !23
  %22 = zext i8 %21 to i64
  %23 = getelementptr inbounds nuw [16 x i64], ptr %20, i64 0, i64 %22
  %24 = load i64, ptr %23, align 8, !tbaa !21
  store i64 %24, ptr %11, align 8, !tbaa !21
  %25 = load ptr, ptr %4, align 8, !tbaa !3
  %26 = getelementptr inbounds nuw %struct.mbedtls_gcm_context, ptr %25, i32 0, i32 1
  %27 = load i8, ptr %8, align 1, !tbaa !23
  %28 = zext i8 %27 to i64
  %29 = getelementptr inbounds nuw [16 x i64], ptr %26, i64 0, i64 %28
  %30 = load i64, ptr %29, align 8, !tbaa !21
  store i64 %30, ptr %12, align 8, !tbaa !21
  store i32 15, ptr %7, align 4, !tbaa !12
  br label %31

31:                                               ; preds = %126, %3
  %32 = load i32, ptr %7, align 4, !tbaa !12
  %33 = icmp sge i32 %32, 0
  br i1 %33, label %34, label %129

34:                                               ; preds = %31
  %35 = load ptr, ptr %5, align 8, !tbaa !10
  %36 = load i32, ptr %7, align 4, !tbaa !12
  %37 = sext i32 %36 to i64
  %38 = getelementptr inbounds i8, ptr %35, i64 %37
  %39 = load i8, ptr %38, align 1, !tbaa !23
  %40 = zext i8 %39 to i32
  %41 = and i32 %40, 15
  %42 = trunc i32 %41 to i8
  store i8 %42, ptr %8, align 1, !tbaa !23
  %43 = load ptr, ptr %5, align 8, !tbaa !10
  %44 = load i32, ptr %7, align 4, !tbaa !12
  %45 = sext i32 %44 to i64
  %46 = getelementptr inbounds i8, ptr %43, i64 %45
  %47 = load i8, ptr %46, align 1, !tbaa !23
  %48 = zext i8 %47 to i32
  %49 = ashr i32 %48, 4
  %50 = and i32 %49, 15
  %51 = trunc i32 %50 to i8
  store i8 %51, ptr %9, align 1, !tbaa !23
  %52 = load i32, ptr %7, align 4, !tbaa !12
  %53 = icmp ne i32 %52, 15
  br i1 %53, label %54, label %90

54:                                               ; preds = %34
  %55 = load i64, ptr %12, align 8, !tbaa !21
  %56 = trunc i64 %55 to i8
  %57 = zext i8 %56 to i32
  %58 = and i32 %57, 15
  %59 = trunc i32 %58 to i8
  store i8 %59, ptr %10, align 1, !tbaa !23
  %60 = load i64, ptr %11, align 8, !tbaa !21
  %61 = shl i64 %60, 60
  %62 = load i64, ptr %12, align 8, !tbaa !21
  %63 = lshr i64 %62, 4
  %64 = or i64 %61, %63
  store i64 %64, ptr %12, align 8, !tbaa !21
  %65 = load i64, ptr %11, align 8, !tbaa !21
  %66 = lshr i64 %65, 4
  store i64 %66, ptr %11, align 8, !tbaa !21
  %67 = load i8, ptr %10, align 1, !tbaa !23
  %68 = zext i8 %67 to i64
  %69 = getelementptr inbounds nuw [16 x i64], ptr @_ZL5last4, i64 0, i64 %68
  %70 = load i64, ptr %69, align 8, !tbaa !21
  %71 = shl i64 %70, 48
  %72 = load i64, ptr %11, align 8, !tbaa !21
  %73 = xor i64 %72, %71
  store i64 %73, ptr %11, align 8, !tbaa !21
  %74 = load ptr, ptr %4, align 8, !tbaa !3
  %75 = getelementptr inbounds nuw %struct.mbedtls_gcm_context, ptr %74, i32 0, i32 2
  %76 = load i8, ptr %8, align 1, !tbaa !23
  %77 = zext i8 %76 to i64
  %78 = getelementptr inbounds nuw [16 x i64], ptr %75, i64 0, i64 %77
  %79 = load i64, ptr %78, align 8, !tbaa !21
  %80 = load i64, ptr %11, align 8, !tbaa !21
  %81 = xor i64 %80, %79
  store i64 %81, ptr %11, align 8, !tbaa !21
  %82 = load ptr, ptr %4, align 8, !tbaa !3
  %83 = getelementptr inbounds nuw %struct.mbedtls_gcm_context, ptr %82, i32 0, i32 1
  %84 = load i8, ptr %8, align 1, !tbaa !23
  %85 = zext i8 %84 to i64
  %86 = getelementptr inbounds nuw [16 x i64], ptr %83, i64 0, i64 %85
  %87 = load i64, ptr %86, align 8, !tbaa !21
  %88 = load i64, ptr %12, align 8, !tbaa !21
  %89 = xor i64 %88, %87
  store i64 %89, ptr %12, align 8, !tbaa !21
  br label %90

90:                                               ; preds = %54, %34
  %91 = load i64, ptr %12, align 8, !tbaa !21
  %92 = trunc i64 %91 to i8
  %93 = zext i8 %92 to i32
  %94 = and i32 %93, 15
  %95 = trunc i32 %94 to i8
  store i8 %95, ptr %10, align 1, !tbaa !23
  %96 = load i64, ptr %11, align 8, !tbaa !21
  %97 = shl i64 %96, 60
  %98 = load i64, ptr %12, align 8, !tbaa !21
  %99 = lshr i64 %98, 4
  %100 = or i64 %97, %99
  store i64 %100, ptr %12, align 8, !tbaa !21
  %101 = load i64, ptr %11, align 8, !tbaa !21
  %102 = lshr i64 %101, 4
  store i64 %102, ptr %11, align 8, !tbaa !21
  %103 = load i8, ptr %10, align 1, !tbaa !23
  %104 = zext i8 %103 to i64
  %105 = getelementptr inbounds nuw [16 x i64], ptr @_ZL5last4, i64 0, i64 %104
  %106 = load i64, ptr %105, align 8, !tbaa !21
  %107 = shl i64 %106, 48
  %108 = load i64, ptr %11, align 8, !tbaa !21
  %109 = xor i64 %108, %107
  store i64 %109, ptr %11, align 8, !tbaa !21
  %110 = load ptr, ptr %4, align 8, !tbaa !3
  %111 = getelementptr inbounds nuw %struct.mbedtls_gcm_context, ptr %110, i32 0, i32 2
  %112 = load i8, ptr %9, align 1, !tbaa !23
  %113 = zext i8 %112 to i64
  %114 = getelementptr inbounds nuw [16 x i64], ptr %111, i64 0, i64 %113
  %115 = load i64, ptr %114, align 8, !tbaa !21
  %116 = load i64, ptr %11, align 8, !tbaa !21
  %117 = xor i64 %116, %115
  store i64 %117, ptr %11, align 8, !tbaa !21
  %118 = load ptr, ptr %4, align 8, !tbaa !3
  %119 = getelementptr inbounds nuw %struct.mbedtls_gcm_context, ptr %118, i32 0, i32 1
  %120 = load i8, ptr %9, align 1, !tbaa !23
  %121 = zext i8 %120 to i64
  %122 = getelementptr inbounds nuw [16 x i64], ptr %119, i64 0, i64 %121
  %123 = load i64, ptr %122, align 8, !tbaa !21
  %124 = load i64, ptr %12, align 8, !tbaa !21
  %125 = xor i64 %124, %123
  store i64 %125, ptr %12, align 8, !tbaa !21
  br label %126

126:                                              ; preds = %90
  %127 = load i32, ptr %7, align 4, !tbaa !12
  %128 = add nsw i32 %127, -1
  store i32 %128, ptr %7, align 4, !tbaa !12
  br label %31, !llvm.loop !39

129:                                              ; preds = %31
  %130 = load i64, ptr %11, align 8, !tbaa !21
  %131 = lshr i64 %130, 32
  %132 = lshr i64 %131, 24
  %133 = and i64 %132, 255
  %134 = trunc i64 %133 to i8
  %135 = load ptr, ptr %6, align 8, !tbaa !10
  %136 = getelementptr inbounds i8, ptr %135, i64 0
  store i8 %134, ptr %136, align 1, !tbaa !23
  %137 = load i64, ptr %11, align 8, !tbaa !21
  %138 = lshr i64 %137, 32
  %139 = lshr i64 %138, 16
  %140 = and i64 %139, 255
  %141 = trunc i64 %140 to i8
  %142 = load ptr, ptr %6, align 8, !tbaa !10
  %143 = getelementptr inbounds i8, ptr %142, i64 1
  store i8 %141, ptr %143, align 1, !tbaa !23
  %144 = load i64, ptr %11, align 8, !tbaa !21
  %145 = lshr i64 %144, 32
  %146 = lshr i64 %145, 8
  %147 = and i64 %146, 255
  %148 = trunc i64 %147 to i8
  %149 = load ptr, ptr %6, align 8, !tbaa !10
  %150 = getelementptr inbounds i8, ptr %149, i64 2
  store i8 %148, ptr %150, align 1, !tbaa !23
  %151 = load i64, ptr %11, align 8, !tbaa !21
  %152 = lshr i64 %151, 32
  %153 = and i64 %152, 255
  %154 = trunc i64 %153 to i8
  %155 = load ptr, ptr %6, align 8, !tbaa !10
  %156 = getelementptr inbounds i8, ptr %155, i64 3
  store i8 %154, ptr %156, align 1, !tbaa !23
  %157 = load i64, ptr %11, align 8, !tbaa !21
  %158 = lshr i64 %157, 24
  %159 = and i64 %158, 255
  %160 = trunc i64 %159 to i8
  %161 = load ptr, ptr %6, align 8, !tbaa !10
  %162 = getelementptr inbounds i8, ptr %161, i64 4
  store i8 %160, ptr %162, align 1, !tbaa !23
  %163 = load i64, ptr %11, align 8, !tbaa !21
  %164 = lshr i64 %163, 16
  %165 = and i64 %164, 255
  %166 = trunc i64 %165 to i8
  %167 = load ptr, ptr %6, align 8, !tbaa !10
  %168 = getelementptr inbounds i8, ptr %167, i64 5
  store i8 %166, ptr %168, align 1, !tbaa !23
  %169 = load i64, ptr %11, align 8, !tbaa !21
  %170 = lshr i64 %169, 8
  %171 = and i64 %170, 255
  %172 = trunc i64 %171 to i8
  %173 = load ptr, ptr %6, align 8, !tbaa !10
  %174 = getelementptr inbounds i8, ptr %173, i64 6
  store i8 %172, ptr %174, align 1, !tbaa !23
  %175 = load i64, ptr %11, align 8, !tbaa !21
  %176 = and i64 %175, 255
  %177 = trunc i64 %176 to i8
  %178 = load ptr, ptr %6, align 8, !tbaa !10
  %179 = getelementptr inbounds i8, ptr %178, i64 7
  store i8 %177, ptr %179, align 1, !tbaa !23
  %180 = load i64, ptr %12, align 8, !tbaa !21
  %181 = lshr i64 %180, 32
  %182 = lshr i64 %181, 24
  %183 = and i64 %182, 255
  %184 = trunc i64 %183 to i8
  %185 = load ptr, ptr %6, align 8, !tbaa !10
  %186 = getelementptr inbounds i8, ptr %185, i64 8
  store i8 %184, ptr %186, align 1, !tbaa !23
  %187 = load i64, ptr %12, align 8, !tbaa !21
  %188 = lshr i64 %187, 32
  %189 = lshr i64 %188, 16
  %190 = and i64 %189, 255
  %191 = trunc i64 %190 to i8
  %192 = load ptr, ptr %6, align 8, !tbaa !10
  %193 = getelementptr inbounds i8, ptr %192, i64 9
  store i8 %191, ptr %193, align 1, !tbaa !23
  %194 = load i64, ptr %12, align 8, !tbaa !21
  %195 = lshr i64 %194, 32
  %196 = lshr i64 %195, 8
  %197 = and i64 %196, 255
  %198 = trunc i64 %197 to i8
  %199 = load ptr, ptr %6, align 8, !tbaa !10
  %200 = getelementptr inbounds i8, ptr %199, i64 10
  store i8 %198, ptr %200, align 1, !tbaa !23
  %201 = load i64, ptr %12, align 8, !tbaa !21
  %202 = lshr i64 %201, 32
  %203 = and i64 %202, 255
  %204 = trunc i64 %203 to i8
  %205 = load ptr, ptr %6, align 8, !tbaa !10
  %206 = getelementptr inbounds i8, ptr %205, i64 11
  store i8 %204, ptr %206, align 1, !tbaa !23
  %207 = load i64, ptr %12, align 8, !tbaa !21
  %208 = lshr i64 %207, 24
  %209 = and i64 %208, 255
  %210 = trunc i64 %209 to i8
  %211 = load ptr, ptr %6, align 8, !tbaa !10
  %212 = getelementptr inbounds i8, ptr %211, i64 12
  store i8 %210, ptr %212, align 1, !tbaa !23
  %213 = load i64, ptr %12, align 8, !tbaa !21
  %214 = lshr i64 %213, 16
  %215 = and i64 %214, 255
  %216 = trunc i64 %215 to i8
  %217 = load ptr, ptr %6, align 8, !tbaa !10
  %218 = getelementptr inbounds i8, ptr %217, i64 13
  store i8 %216, ptr %218, align 1, !tbaa !23
  %219 = load i64, ptr %12, align 8, !tbaa !21
  %220 = lshr i64 %219, 8
  %221 = and i64 %220, 255
  %222 = trunc i64 %221 to i8
  %223 = load ptr, ptr %6, align 8, !tbaa !10
  %224 = getelementptr inbounds i8, ptr %223, i64 14
  store i8 %222, ptr %224, align 1, !tbaa !23
  %225 = load i64, ptr %12, align 8, !tbaa !21
  %226 = and i64 %225, 255
  %227 = trunc i64 %226 to i8
  %228 = load ptr, ptr %6, align 8, !tbaa !10
  %229 = getelementptr inbounds i8, ptr %228, i64 15
  store i8 %227, ptr %229, align 1, !tbaa !23
  call void @llvm.lifetime.end.p0(i64 8, ptr %12) #6
  call void @llvm.lifetime.end.p0(i64 8, ptr %11) #6
  call void @llvm.lifetime.end.p0(i64 1, ptr %10) #6
  call void @llvm.lifetime.end.p0(i64 1, ptr %9) #6
  call void @llvm.lifetime.end.p0(i64 1, ptr %8) #6
  call void @llvm.lifetime.end.p0(i64 4, ptr %7) #6
  ret void
}