; Function Attrs: mustprogress nofree norecurse nosync nounwind memory(argmem: readwrite) uwtable
define internal fastcc void @_ZL8gcm_multP19mbedtls_gcm_contextPKhPh(ptr noundef readonly captures(none) %0, ptr noundef readonly captures(none) %1, ptr noundef writeonly captures(none) %2) unnamed_addr #6 {
  %4 = getelementptr inbounds nuw i8, ptr %1, i64 15
  %5 = load i8, ptr %4, align 1, !tbaa !15
  %6 = and i8 %5, 15
  %7 = getelementptr inbounds nuw i8, ptr %0, i64 200
  %8 = zext nneg i8 %6 to i64
  %9 = getelementptr inbounds nuw [16 x i64], ptr %7, i64 0, i64 %8
  %10 = load i64, ptr %9, align 8, !tbaa !13
  %11 = getelementptr inbounds nuw i8, ptr %0, i64 72
  %12 = getelementptr inbounds nuw [16 x i64], ptr %11, i64 0, i64 %8
  %13 = load i64, ptr %12, align 8, !tbaa !13
  br label %14

14:                                               ; preds = %3, %34
  %indvars.iv = phi i64 [ 15, %3 ], [ %indvars.iv.next, %34 ]
  %.072 = phi i64 [ %13, %3 ], [ %48, %34 ]
  %.06771 = phi i64 [ %10, %3 ], [ %45, %34 ]
  %15 = getelementptr inbounds nuw i8, ptr %1, i64 %indvars.iv
  %16 = load i8, ptr %15, align 1, !tbaa !15
  %17 = lshr i8 %16, 4
  %.not = icmp eq i64 %indvars.iv, 15
  br i1 %.not, label %34, label %18

18:                                               ; preds = %14
  %19 = and i8 %16, 15
  %20 = and i64 %.072, 15
  %21 = tail call i64 @llvm.fshl.i64(i64 %.06771, i64 %.072, i64 60)
  %22 = lshr i64 %.06771, 4
  %23 = getelementptr inbounds nuw [16 x i64], ptr @_ZL5last4, i64 0, i64 %20
  %24 = load i64, ptr %23, align 8, !tbaa !13
  %25 = shl i64 %24, 48
  %26 = xor i64 %25, %22
  %27 = zext nneg i8 %19 to i64
  %28 = getelementptr inbounds nuw [16 x i64], ptr %7, i64 0, i64 %27
  %29 = load i64, ptr %28, align 8, !tbaa !13
  %30 = xor i64 %26, %29
  %31 = getelementptr inbounds nuw [16 x i64], ptr %11, i64 0, i64 %27
  %32 = load i64, ptr %31, align 8, !tbaa !13
  %33 = xor i64 %32, %21
  br label %34

34:                                               ; preds = %18, %14
  %.168 = phi i64 [ %30, %18 ], [ %.06771, %14 ]
  %.1 = phi i64 [ %33, %18 ], [ %.072, %14 ]
  %35 = and i64 %.1, 15
  %36 = tail call i64 @llvm.fshl.i64(i64 %.168, i64 %.1, i64 60)
  %37 = lshr i64 %.168, 4
  %38 = getelementptr inbounds nuw [16 x i64], ptr @_ZL5last4, i64 0, i64 %35
  %39 = load i64, ptr %38, align 8, !tbaa !13
  %40 = shl i64 %39, 48
  %41 = xor i64 %40, %37
  %42 = zext nneg i8 %17 to i64
  %43 = getelementptr inbounds nuw [16 x i64], ptr %7, i64 0, i64 %42
  %44 = load i64, ptr %43, align 8, !tbaa !13
  %45 = xor i64 %41, %44
  %46 = getelementptr inbounds nuw [16 x i64], ptr %11, i64 0, i64 %42
  %47 = load i64, ptr %46, align 8, !tbaa !13
  %48 = xor i64 %47, %36
  %indvars.iv.next = add nsw i64 %indvars.iv, -1
  %.not75 = icmp eq i64 %indvars.iv, 0
  br i1 %.not75, label %49, label %14, !llvm.loop !28

49:                                               ; preds = %34
  %50 = lshr i64 %45, 32
  %51 = lshr i64 %45, 56
  %52 = trunc nuw i64 %51 to i8
  store i8 %52, ptr %2, align 1, !tbaa !15
  %53 = lshr i64 %45, 48
  %54 = trunc i64 %53 to i8
  %55 = getelementptr inbounds nuw i8, ptr %2, i64 1
  store i8 %54, ptr %55, align 1, !tbaa !15
  %56 = lshr i64 %45, 40
  %57 = trunc i64 %56 to i8
  %58 = getelementptr inbounds nuw i8, ptr %2, i64 2
  store i8 %57, ptr %58, align 1, !tbaa !15
  %59 = trunc i64 %50 to i8
  %60 = getelementptr inbounds nuw i8, ptr %2, i64 3
  store i8 %59, ptr %60, align 1, !tbaa !15
  %61 = lshr i64 %45, 24
  %62 = trunc i64 %61 to i8
  %63 = getelementptr inbounds nuw i8, ptr %2, i64 4
  store i8 %62, ptr %63, align 1, !tbaa !15
  %64 = lshr i64 %45, 16
  %65 = trunc i64 %64 to i8
  %66 = getelementptr inbounds nuw i8, ptr %2, i64 5
  store i8 %65, ptr %66, align 1, !tbaa !15
  %67 = lshr i64 %45, 8
  %68 = trunc i64 %67 to i8
  %69 = getelementptr inbounds nuw i8, ptr %2, i64 6
  store i8 %68, ptr %69, align 1, !tbaa !15
  %70 = trunc i64 %45 to i8
  %71 = getelementptr inbounds nuw i8, ptr %2, i64 7
  store i8 %70, ptr %71, align 1, !tbaa !15
  %72 = lshr i64 %48, 32
  %73 = lshr i64 %48, 56
  %74 = trunc nuw i64 %73 to i8
  %75 = getelementptr inbounds nuw i8, ptr %2, i64 8
  store i8 %74, ptr %75, align 1, !tbaa !15
  %76 = lshr i64 %48, 48
  %77 = trunc i64 %76 to i8
  %78 = getelementptr inbounds nuw i8, ptr %2, i64 9
  store i8 %77, ptr %78, align 1, !tbaa !15
  %79 = lshr i64 %48, 40
  %80 = trunc i64 %79 to i8
  %81 = getelementptr inbounds nuw i8, ptr %2, i64 10
  store i8 %80, ptr %81, align 1, !tbaa !15
  %82 = trunc i64 %72 to i8
  %83 = getelementptr inbounds nuw i8, ptr %2, i64 11
  store i8 %82, ptr %83, align 1, !tbaa !15
  %84 = lshr i64 %48, 24
  %85 = trunc i64 %84 to i8
  %86 = getelementptr inbounds nuw i8, ptr %2, i64 12
  store i8 %85, ptr %86, align 1, !tbaa !15
  %87 = lshr i64 %48, 16
  %88 = trunc i64 %87 to i8
  %89 = getelementptr inbounds nuw i8, ptr %2, i64 13
  store i8 %88, ptr %89, align 1, !tbaa !15
  %90 = lshr i64 %48, 8
  %91 = trunc i64 %90 to i8
  %92 = getelementptr inbounds nuw i8, ptr %2, i64 14
  store i8 %91, ptr %92, align 1, !tbaa !15
  %93 = trunc i64 %48 to i8
  %94 = getelementptr inbounds nuw i8, ptr %2, i64 15
  store i8 %93, ptr %94, align 1, !tbaa !15
  ret void
}